target datalayout = "e-m:e-p270:32:32-p271:32:32-p272:64:64-i64:64-i128:128-f80:128-n8:16:32:64-S128"
target triple = "x86_64-pc-linux-gnu"

%struct.AVFormatContext = type { ptr, ptr, ptr, ptr, ptr, i32, i32, ptr, i32, ptr, i32, ptr, ptr, i64, i64, i64, i32, i32, i32, i64, i64, ptr, i32, i32, ptr, i32, i32, i32, i32, ptr, i64, i32, i32, %struct.AVIOInterruptCB, i32, i32, i32, i32, i64, i32, i32, i32, i32, i32, i32, i32, i32, i32, i32, i32, i32, i64, i32, i32, i32, i32, i32, ptr, ptr, ptr, ptr, i32, ptr, ptr, ptr, ptr, i32, ptr, ptr, i64, ptr, ptr, ptr, i64 }
%struct.AVIOInterruptCB = type { ptr, ptr }
%struct.WebMChunkContext = type { ptr, ptr, i32, i32, ptr, i64, i64, ptr, i32 }

@.str.11 = private unnamed_addr constant [7 x i8] c"method\00", align 1
@.str.14 = private unnamed_addr constant [38 x i8] c"Invalid chunk filename template '%s'\0A\00", align 1

; Function Attrs: nounwind uwtable
define internal i32 @get_chunk_filename(ptr noundef %0, ptr noundef %1) #0 {
  %3 = alloca i32, align 4
  %4 = alloca ptr, align 8
  %5 = alloca ptr, align 8
  %6 = alloca ptr, align 8
  %7 = alloca i32, align 4
  store ptr %0, ptr %4, align 8, !tbaa !4
  store ptr %1, ptr %5, align 8, !tbaa !93
  call void @llvm.lifetime.start.p0(i64 8, ptr %6) #6
  %8 = load ptr, ptr %4, align 8, !tbaa !4
  %9 = getelementptr inbounds nuw %struct.AVFormatContext, ptr %8, i32 0, i32 3
  %10 = load ptr, ptr %9, align 8, !tbaa !9
  store ptr %10, ptr %6, align 8, !tbaa !26
  %11 = load ptr, ptr %5, align 8, !tbaa !93
  %12 = icmp ne ptr %11, null
  br i1 %12, label %14, label %13

13:                                               ; preds = %2
  store i32 -22, ptr %3, align 4
  store i32 1, ptr %7, align 4
  br label %31

14:                                               ; preds = %2
  %15 = load ptr, ptr %5, align 8, !tbaa !93
  %16 = load ptr, ptr %4, align 8, !tbaa !4
  %17 = getelementptr inbounds nuw %struct.AVFormatContext, ptr %16, i32 0, i32 12
  %18 = load ptr, ptr %17, align 8, !tbaa !71
  %19 = load ptr, ptr %6, align 8, !tbaa !26
  %20 = getelementptr inbounds nuw %struct.WebMChunkContext, ptr %19, i32 0, i32 3
  %21 = load i32, ptr %20, align 4, !tbaa !94
  %22 = sub nsw i32 %21, 1
  %23 = call i32 @av_get_frame_filename(ptr noundef %15, i32 noundef 1024, ptr noundef %18, i32 noundef %22)
  %24 = icmp slt i32 %23, 0
  br i1 %24, label %25, label %30

25:                                               ; preds = %14
  %26 = load ptr, ptr %4, align 8, !tbaa !4
  %27 = load ptr, ptr %4, align 8, !tbaa !4
  %28 = getelementptr inbounds nuw %struct.AVFormatContext, ptr %27, i32 0, i32 12
  %29 = load ptr, ptr %28, align 8, !tbaa !71
  call void (ptr, i32, ptr, ...) @av_log(ptr noundef %26, i32 noundef 16, ptr noundef @.str.14, ptr noundef %29)
  store i32 -22, ptr %3, align 4
  store i32 1, ptr %7, align 4
  br label %31

30:                                               ; preds = %14
  store i32 0, ptr %3, align 4
  store i32 1, ptr %7, align 4
  br label %31

31:                                               ; preds = %30, %25, %13
  call void @llvm.lifetime.end.p0(i64 8, ptr %6) #6
  %32 = load i32, ptr %3, align 4
  ret i32 %32
}

; Function Attrs: nounwind uwtable
define internal i32 @chunk_end(ptr noundef %0, i32 noundef %1) #0 {
  %3 = alloca i32, align 4
  %4 = alloca ptr, align 8
  %5 = alloca i32, align 4
  %6 = alloca ptr, align 8
  %7 = alloca ptr, align 8
  %8 = alloca i32, align 4
  %9 = alloca i32, align 4
  %10 = alloca ptr, align 8
  %11 = alloca ptr, align 8
  %12 = alloca [1024 x i8], align 16
  %13 = alloca ptr, align 8
  %14 = alloca i32, align 4
  store ptr %0, ptr %4, align 8, !tbaa !4
  store i32 %1, ptr %5, align 4, !tbaa !33
  call void @llvm.lifetime.start.p0(i64 8, ptr %6) #6
  %15 = load ptr, ptr %4, align 8, !tbaa !4
  %16 = getelementptr inbounds nuw %struct.AVFormatContext, ptr %15, i32 0, i32 3
  %17 = load ptr, ptr %16, align 8, !tbaa !9
  store ptr %17, ptr %6, align 8, !tbaa !26
  call void @llvm.lifetime.start.p0(i64 8, ptr %7) #6
  %18 = load ptr, ptr %6, align 8, !tbaa !26
  %19 = getelementptr inbounds nuw %struct.WebMChunkContext, ptr %18, i32 0, i32 7
  %20 = load ptr, ptr %19, align 8, !tbaa !28
  store ptr %20, ptr %7, align 8, !tbaa !4
  call void @llvm.lifetime.start.p0(i64 4, ptr %8) #6
  call void @llvm.lifetime.start.p0(i64 4, ptr %9) #6
  call void @llvm.lifetime.start.p0(i64 8, ptr %10) #6
  call void @llvm.lifetime.start.p0(i64 8, ptr %11) #6
  call void @llvm.lifetime.start.p0(i64 1024, ptr %12) #6
  call void @llvm.lifetime.start.p0(i64 8, ptr %13) #6
  store ptr null, ptr %13, align 8, !tbaa !68
  %21 = load ptr, ptr %7, align 8, !tbaa !4
  %22 = getelementptr inbounds nuw %struct.AVFormatContext, ptr %21, i32 0, i32 4
  %23 = load ptr, ptr %22, align 8, !tbaa !65
  %24 = icmp ne ptr %23, null
  br i1 %24, label %26, label %25

25:                                               ; preds = %2
  store i32 0, ptr %3, align 4
  store i32 1, ptr %14, align 4
  br label %83

26:                                               ; preds = %2
  %27 = load i32, ptr %5, align 4, !tbaa !33
  %28 = icmp ne i32 %27, 0
  br i1 %28, label %29, label %32

29:                                               ; preds = %26
  %30 = load ptr, ptr %7, align 8, !tbaa !4
  %31 = call i32 @av_write_frame(ptr noundef %30, ptr noundef null)
  br label %32

32:                                               ; preds = %29, %26
  %33 = load ptr, ptr %7, align 8, !tbaa !4
  %34 = getelementptr inbounds nuw %struct.AVFormatContext, ptr %33, i32 0, i32 4
  %35 = load ptr, ptr %34, align 8, !tbaa !65
  %36 = call i32 @avio_close_dyn_buf(ptr noundef %35, ptr noundef %10)
  store i32 %36, ptr %9, align 4, !tbaa !33
  %37 = load ptr, ptr %7, align 8, !tbaa !4
  %38 = getelementptr inbounds nuw %struct.AVFormatContext, ptr %37, i32 0, i32 4
  store ptr null, ptr %38, align 8, !tbaa !65
  %39 = load ptr, ptr %4, align 8, !tbaa !4
  %40 = getelementptr inbounds [1024 x i8], ptr %12, i64 0, i64 0
  %41 = call i32 @get_chunk_filename(ptr noundef %39, ptr noundef %40)
  store i32 %41, ptr %8, align 4, !tbaa !33
  %42 = load i32, ptr %8, align 4, !tbaa !33
  %43 = icmp slt i32 %42, 0
  br i1 %43, label %44, label %45

44:                                               ; preds = %32
  br label %74

45:                                               ; preds = %32
  %46 = load ptr, ptr %6, align 8, !tbaa !26
  %47 = getelementptr inbounds nuw %struct.WebMChunkContext, ptr %46, i32 0, i32 4
  %48 = load ptr, ptr %47, align 8, !tbaa !81
  %49 = icmp ne ptr %48, null
  br i1 %49, label %50, label %58

50:                                               ; preds = %45
  %51 = load ptr, ptr %6, align 8, !tbaa !26
  %52 = getelementptr inbounds nuw %struct.WebMChunkContext, ptr %51, i32 0, i32 4
  %53 = load ptr, ptr %52, align 8, !tbaa !81
  %54 = call i32 @av_dict_set(ptr noundef %13, ptr noundef @.str.11, ptr noundef %53, i32 noundef 0)
  store i32 %54, ptr %8, align 4, !tbaa !33
  %55 = icmp slt i32 %54, 0
  br i1 %55, label %56, label %57

56:                                               ; preds = %50
  br label %74

57:                                               ; preds = %50
  br label %58

58:                                               ; preds = %57, %45
  %59 = load ptr, ptr %4, align 8, !tbaa !4
  %60 = getelementptr inbounds nuw %struct.AVFormatContext, ptr %59, i32 0, i32 71
  %61 = load ptr, ptr %60, align 8, !tbaa !82
  %62 = load ptr, ptr %4, align 8, !tbaa !4
  %63 = getelementptr inbounds [1024 x i8], ptr %12, i64 0, i64 0
  %64 = call i32 %61(ptr noundef %62, ptr noundef %11, ptr noundef %63, i32 noundef 2, ptr noundef %13)
  store i32 %64, ptr %8, align 4, !tbaa !33
  call void @av_dict_free(ptr noundef %13)
  %65 = load i32, ptr %8, align 4, !tbaa !33
  %66 = icmp slt i32 %65, 0
  br i1 %66, label %67, label %68

67:                                               ; preds = %58
  br label %74

68:                                               ; preds = %58
  %69 = load ptr, ptr %11, align 8, !tbaa !92
  %70 = load ptr, ptr %10, align 8, !tbaa !93
  %71 = load i32, ptr %9, align 4, !tbaa !33
  call void @avio_write(ptr noundef %69, ptr noundef %70, i32 noundef %71)
  %72 = load ptr, ptr %4, align 8, !tbaa !4
  %73 = call i32 @ff_format_io_close(ptr noundef %72, ptr noundef %11)
  br label %74

74:                                               ; preds = %68, %67, %56, %44
  %75 = load ptr, ptr %10, align 8, !tbaa !93
  call void @av_free(ptr noundef %75)
  %76 = load i32, ptr %8, align 4, !tbaa !33
  %77 = icmp slt i32 %76, 0
  br i1 %77, label %78, label %80

78:                                               ; preds = %74
  %79 = load i32, ptr %8, align 4, !tbaa !33
  br label %81

80:                                               ; preds = %74
  br label %81

81:                                               ; preds = %80, %78
  %82 = phi i32 [ %79, %78 ], [ 0, %80 ]
  store i32 %82, ptr %3, align 4
  store i32 1, ptr %14, align 4
  br label %83

83:                                               ; preds = %81, %25
  call void @llvm.lifetime.end.p0(i64 8, ptr %13) #6
  call void @llvm.lifetime.end.p0(i64 1024, ptr %12) #6
  call void @llvm.lifetime.end.p0(i64 8, ptr %11) #6
  call void @llvm.lifetime.end.p0(i64 8, ptr %10) #6
  call void @llvm.lifetime.end.p0(i64 4, ptr %9) #6
  call void @llvm.lifetime.end.p0(i64 4, ptr %8) #6
  call void @llvm.lifetime.end.p0(i64 8, ptr %7) #6
  call void @llvm.lifetime.end.p0(i64 8, ptr %6) #6
  %84 = load i32, ptr %3, align 4
  ret i32 %84
}