; Function Attrs: nounwind uwtable
define internal fastcc range(i32 -2147483648, 1) i32 @chunk_end(ptr noundef %0, i32 noundef range(i32 0, 2) %1) unnamed_addr #0 {
  %3 = alloca ptr, align 8
  %4 = alloca ptr, align 8
  %5 = alloca [1024 x i8], align 16
  %6 = alloca ptr, align 8
  %7 = getelementptr inbounds nuw i8, ptr %0, i64 24
  %8 = load ptr, ptr %7, align 8, !tbaa !4
  %9 = getelementptr inbounds nuw i8, ptr %8, i64 48
  %10 = load ptr, ptr %9, align 8, !tbaa !24
  call void @llvm.lifetime.start.p0(i64 8, ptr nonnull %3) #6
  call void @llvm.lifetime.start.p0(i64 8, ptr nonnull %4) #6
  call void @llvm.lifetime.start.p0(i64 1024, ptr nonnull %5) #6
  call void @llvm.lifetime.start.p0(i64 8, ptr nonnull %6) #6
  store ptr null, ptr %6, align 8, !tbaa !61
  %11 = getelementptr inbounds nuw i8, ptr %10, i64 32
  %12 = load ptr, ptr %11, align 8, !tbaa !57
  %.not = icmp eq ptr %12, null
  br i1 %.not, label %45, label %13

13:                                               ; preds = %2
  %.not23 = icmp eq i32 %1, 0
  br i1 %.not23, label %16, label %14

14:                                               ; preds = %13
  %15 = tail call i32 @av_write_frame(ptr noundef nonnull %10, ptr noundef null) #6
  %.pre = load ptr, ptr %11, align 8, !tbaa !57
  br label %16

16:                                               ; preds = %14, %13
  %17 = phi ptr [ %.pre, %14 ], [ %12, %13 ]
  %18 = call i32 @avio_close_dyn_buf(ptr noundef %17, ptr noundef nonnull %3) #6
  store ptr null, ptr %11, align 8, !tbaa !57
  %19 = load ptr, ptr %7, align 8, !tbaa !4
  %20 = getelementptr inbounds nuw i8, ptr %0, i64 88
  %21 = load ptr, ptr %20, align 8, !tbaa !64
  %22 = getelementptr inbounds nuw i8, ptr %19, i64 20
  %23 = load i32, ptr %22, align 4, !tbaa !60
  %24 = add nsw i32 %23, -1
  %25 = call i32 @av_get_frame_filename(ptr noundef nonnull %5, i32 noundef 1024, ptr noundef %21, i32 noundef %24) #6
  %26 = icmp slt i32 %25, 0
  br i1 %26, label %get_chunk_filename.exit.thread, label %get_chunk_filename.exit

get_chunk_filename.exit.thread:                   ; preds = %16
  %27 = load ptr, ptr %20, align 8, !tbaa !64
  call void (ptr, i32, ptr, ...) @av_log(ptr noundef nonnull %0, i32 noundef 16, ptr noundef nonnull @.str.14, ptr noundef %27) #6
  br label %42

get_chunk_filename.exit:                          ; preds = %16
  %28 = getelementptr inbounds nuw i8, ptr %8, i64 24
  %29 = load ptr, ptr %28, align 8, !tbaa !73
  %.not24 = icmp eq ptr %29, null
  br i1 %.not24, label %33, label %30

30:                                               ; preds = %get_chunk_filename.exit
  %31 = call i32 @av_dict_set(ptr noundef nonnull %6, ptr noundef nonnull @.str.11, ptr noundef nonnull %29, i32 noundef 0) #6
  %32 = icmp slt i32 %31, 0
  br i1 %32, label %42, label %33

33:                                               ; preds = %30, %get_chunk_filename.exit
  %34 = getelementptr inbounds nuw i8, ptr %0, i64 448
  %35 = load ptr, ptr %34, align 8, !tbaa !74
  %36 = call i32 %35(ptr noundef nonnull %0, ptr noundef nonnull %4, ptr noundef nonnull %5, i32 noundef 2, ptr noundef nonnull %6) #6
  call void @av_dict_free(ptr noundef nonnull %6) #6
  %37 = icmp slt i32 %36, 0
  br i1 %37, label %42, label %38

38:                                               ; preds = %33
  %39 = load ptr, ptr %4, align 8, !tbaa !85
  %40 = load ptr, ptr %3, align 8, !tbaa !86
  call void @avio_write(ptr noundef %39, ptr noundef %40, i32 noundef %18) #6
  %41 = call i32 @ff_format_io_close(ptr noundef nonnull %0, ptr noundef nonnull %4) #6
  br label %42

42:                                               ; preds = %get_chunk_filename.exit.thread, %33, %30, %38
  %.018 = phi i32 [ %31, %30 ], [ %36, %33 ], [ %36, %38 ], [ -22, %get_chunk_filename.exit.thread ]
  %43 = load ptr, ptr %3, align 8, !tbaa !86
  call void @av_free(ptr noundef %43) #6
  %44 = call i32 @llvm.smin.i32(i32 %.018, i32 0)
  br label %45

45:                                               ; preds = %2, %42
  %.0 = phi i32 [ %44, %42 ], [ 0, %2 ]
  call void @llvm.lifetime.end.p0(i64 8, ptr nonnull %6) #6
  call void @llvm.lifetime.end.p0(i64 1024, ptr nonnull %5) #6
  call void @llvm.lifetime.end.p0(i64 8, ptr nonnull %4) #6
  call void @llvm.lifetime.end.p0(i64 8, ptr nonnull %3) #6
  ret i32 %.0
}